; Function Attrs: nounwind uwtable
define dso_local void @COVER_best_destroy(ptr noundef readonly %0) local_unnamed_addr #5 {
  %.not = icmp eq ptr %0, null
  br i1 %.not, label %7, label %.preheader.i

.preheader.i:                                     ; preds = %1
  %2 = getelementptr inbounds nuw i8, ptr %0, i64 8
  %3 = load i64, ptr %2, align 8, !tbaa !62
  %.not2.i = icmp eq i64 %3, 0
  br i1 %.not2.i, label %COVER_best_wait.exit, label %.preheader.split.i, !llvm.loop !63

.preheader.split.i:                               ; preds = %.preheader.i, %.preheader.split.i
  br label %.preheader.split.i

COVER_best_wait.exit:                             ; preds = %.preheader.i
  %4 = getelementptr inbounds nuw i8, ptr %0, i64 16
  %5 = load ptr, ptr %4, align 8, !tbaa !64
  %.not5 = icmp eq ptr %5, null
  br i1 %.not5, label %7, label %6

6:                                                ; preds = %COVER_best_wait.exit
  tail call void @free(ptr noundef nonnull %5) #24
  br label %7

7:                                                ; preds = %COVER_best_wait.exit, %6, %1
  ret void
}